target datalayout = "e-m:e-p270:32:32-p271:32:32-p272:64:64-i64:64-i128:128-f80:128-n8:16:32:64-S128"
target triple = "x86_64-pc-linux-gnu"

%struct.async = type { ptr, ptr, i32, i32, i64, i32, i32, i32 }

@.str.13 = private unnamed_addr constant [20 x i8] c"pthread_join failed\00", align 1

; Function Attrs: inlinehint nounwind uwtable
define internal i32 @const_error() #7 {
  ret i32 -1
}

; Function Attrs: nounwind uwtable
define dso_local i32 @finish_async(ptr noundef %0) #0 {
  %2 = alloca ptr, align 8
  %3 = alloca ptr, align 8
  store ptr %0, ptr %2, align 8, !tbaa !92
  call void @llvm.lifetime.start.p0(i64 8, ptr %3) #13
  store ptr inttoptr (i64 -1 to ptr), ptr %3, align 8, !tbaa !90
  %4 = load ptr, ptr %2, align 8, !tbaa !92
  %5 = getelementptr inbounds nuw %struct.async, ptr %4, i32 0, i32 4
  %6 = load i64, ptr %5, align 8, !tbaa !102
  %7 = call i32 @pthread_join(i64 noundef %6, ptr noundef %3)
  %8 = icmp ne i32 %7, 0
  br i1 %8, label %9, label %12

9:                                                ; preds = %1
  %10 = call i32 (ptr, ...) @error(ptr noundef @.str.13)
  %11 = call i32 @const_error()
  br label %12

12:                                               ; preds = %9, %1
  call void @invalidate_lstat_cache()
  %13 = load ptr, ptr %3, align 8, !tbaa !90
  %14 = ptrtoint ptr %13 to i64
  %15 = trunc i64 %14 to i32
  call void @llvm.lifetime.end.p0(i64 8, ptr %3) #13
  ret i32 %15
}