; Function Attrs: nounwind uwtable
define dso_local i32 @finish_async(ptr noundef readonly captures(none) %0) local_unnamed_addr #3 {
  %2 = alloca ptr, align 8
  call void @llvm.lifetime.start.p0(i64 8, ptr nonnull %2) #21
  store ptr inttoptr (i64 -1 to ptr), ptr %2, align 8, !tbaa !79
  %3 = getelementptr inbounds nuw i8, ptr %0, i64 24
  %4 = load i64, ptr %3, align 8, !tbaa !91
  %5 = call i32 @pthread_join(i64 noundef %4, ptr noundef nonnull %2) #21
  %.not = icmp eq i32 %5, 0
  br i1 %.not, label %8, label %6

6:                                                ; preds = %1
  %7 = call i32 (ptr, ...) @error(ptr noundef nonnull @.str.13) #21
  br label %8

8:                                                ; preds = %6, %1
  call void @invalidate_lstat_cache() #21
  %9 = load ptr, ptr %2, align 8, !tbaa !79
  %10 = ptrtoint ptr %9 to i64
  %11 = trunc i64 %10 to i32
  call void @llvm.lifetime.end.p0(i64 8, ptr nonnull %2) #21
  ret i32 %11
}